target datalayout = "e-m:e-p270:32:32-p271:32:32-p272:64:64-i64:64-i128:128-f80:128-n8:16:32:64-S128"
target triple = "x86_64-pc-linux-gnu"

%struct._generic_SUNAdaptController = type { ptr, ptr, ptr }
%struct._SUNAdaptControllerContent_Soderlind = type { double, double, double, double, double, double, double, double, double, double, i32 }

; Function Attrs: nounwind uwtable
define i32 @SUNAdaptController_SetParams_Soderlind(ptr noundef %0, double noundef %1, double noundef %2, double noundef %3, double noundef %4, double noundef %5) #0 {
  %7 = alloca ptr, align 8
  %8 = alloca double, align 8
  %9 = alloca double, align 8
  %10 = alloca double, align 8
  %11 = alloca double, align 8
  %12 = alloca double, align 8
  %13 = alloca ptr, align 8
  store ptr %0, ptr %7, align 8, !tbaa !8
  store double %1, ptr %8, align 8, !tbaa !25
  store double %2, ptr %9, align 8, !tbaa !25
  store double %3, ptr %10, align 8, !tbaa !25
  store double %4, ptr %11, align 8, !tbaa !25
  store double %5, ptr %12, align 8, !tbaa !25
  call void @llvm.lifetime.start.p0(i64 8, ptr %13) #5
  %14 = load ptr, ptr %7, align 8, !tbaa !8
  %15 = getelementptr inbounds nuw %struct._generic_SUNAdaptController, ptr %14, i32 0, i32 2
  %16 = load ptr, ptr %15, align 8, !tbaa !31
  store ptr %16, ptr %13, align 8, !tbaa !3
  %17 = load double, ptr %8, align 8, !tbaa !25
  %18 = load ptr, ptr %7, align 8, !tbaa !8
  %19 = getelementptr inbounds nuw %struct._generic_SUNAdaptController, ptr %18, i32 0, i32 0
  %20 = load ptr, ptr %19, align 8, !tbaa !24
  %21 = getelementptr inbounds nuw %struct._SUNAdaptControllerContent_Soderlind, ptr %20, i32 0, i32 0
  store double %17, ptr %21, align 8, !tbaa !32
  %22 = load double, ptr %9, align 8, !tbaa !25
  %23 = load ptr, ptr %7, align 8, !tbaa !8
  %24 = getelementptr inbounds nuw %struct._generic_SUNAdaptController, ptr %23, i32 0, i32 0
  %25 = load ptr, ptr %24, align 8, !tbaa !24
  %26 = getelementptr inbounds nuw %struct._SUNAdaptControllerContent_Soderlind, ptr %25, i32 0, i32 1
  store double %22, ptr %26, align 8, !tbaa !34
  %27 = load double, ptr %10, align 8, !tbaa !25
  %28 = load ptr, ptr %7, align 8, !tbaa !8
  %29 = getelementptr inbounds nuw %struct._generic_SUNAdaptController, ptr %28, i32 0, i32 0
  %30 = load ptr, ptr %29, align 8, !tbaa !24
  %31 = getelementptr inbounds nuw %struct._SUNAdaptControllerContent_Soderlind, ptr %30, i32 0, i32 2
  store double %27, ptr %31, align 8, !tbaa !35
  %32 = load double, ptr %11, align 8, !tbaa !25
  %33 = load ptr, ptr %7, align 8, !tbaa !8
  %34 = getelementptr inbounds nuw %struct._generic_SUNAdaptController, ptr %33, i32 0, i32 0
  %35 = load ptr, ptr %34, align 8, !tbaa !24
  %36 = getelementptr inbounds nuw %struct._SUNAdaptControllerContent_Soderlind, ptr %35, i32 0, i32 3
  store double %32, ptr %36, align 8, !tbaa !36
  %37 = load double, ptr %12, align 8, !tbaa !25
  %38 = load ptr, ptr %7, align 8, !tbaa !8
  %39 = getelementptr inbounds nuw %struct._generic_SUNAdaptController, ptr %38, i32 0, i32 0
  %40 = load ptr, ptr %39, align 8, !tbaa !24
  %41 = getelementptr inbounds nuw %struct._SUNAdaptControllerContent_Soderlind, ptr %40, i32 0, i32 4
  store double %37, ptr %41, align 8, !tbaa !37
  call void @llvm.lifetime.end.p0(i64 8, ptr %13) #5
  ret i32 0
}